target datalayout = "e-m:e-p270:32:32-p271:32:32-p272:64:64-i64:64-i128:128-f80:128-n8:16:32:64-S128"
target triple = "x86_64-pc-linux-gnu"

%"struct.std::array" = type { [95 x %struct.InteractionList] }
%struct.InteractionList = type { %"class.std::vector" }
%"class.std::vector" = type { %"struct.std::_Vector_base" }
%"struct.std::_Vector_base" = type { %"struct.std::_Vector_base<int, std::allocator<int>>::_Vector_impl" }
%"struct.std::_Vector_base<int, std::allocator<int>>::_Vector_impl" = type { %"struct.std::_Vector_base<int, std::allocator<int>>::_Vector_impl_data" }
%"struct.std::_Vector_base<int, std::allocator<int>>::_Vector_impl_data" = type { ptr, ptr, ptr }

@.str.78 = private unnamed_addr constant [28 x i8] c"comparing InteractionLists\0A\00", align 1
@.str.79 = private unnamed_addr constant [66 x i8] c"InteractionLists are present in topology %d but not in the other\0A\00", align 1
@.str.80 = private unnamed_addr constant [21 x i8] c"InteractionList size\00", align 1
@.str.81 = private unnamed_addr constant [22 x i8] c"InteractionList entry\00", align 1
@.str.82 = private unnamed_addr constant [52 x i8] c"array::at: __n (which is %zu) >= _Nm (which is %zu)\00", align 1
@.str.83 = private unnamed_addr constant [74 x i8] c"vector::_M_range_check: __n (which is %zu) >= this->size() (which is %zu)\00", align 1

; Function Attrs: mustprogress nounwind uwtable
define linkonce_odr noundef nonnull align 4 dereferenceable(4) ptr @_ZNKSt6vectorIiSaIiEEixEm(ptr noundef nonnull align 8 dereferenceable(24) %0, i64 noundef %1) #3 comdat align 2 {
  %3 = alloca ptr, align 8
  %4 = alloca i64, align 8
  store ptr %0, ptr %3, align 8, !tbaa !45
  store i64 %1, ptr %4, align 8, !tbaa !61
  %5 = load ptr, ptr %3, align 8
  %6 = getelementptr inbounds nuw %"struct.std::_Vector_base", ptr %5, i32 0, i32 0
  %7 = getelementptr inbounds nuw %"struct.std::_Vector_base<int, std::allocator<int>>::_Vector_impl_data", ptr %6, i32 0, i32 0
  %8 = load ptr, ptr %7, align 8, !tbaa !53
  %9 = load i64, ptr %4, align 8, !tbaa !61
  %10 = getelementptr inbounds nuw i32, ptr %8, i64 %9
  ret ptr %10
}

; Function Attrs: mustprogress uwtable
define linkonce_odr void @_ZNKSt6vectorIiSaIiEE14_M_range_checkEm(ptr noundef nonnull align 8 dereferenceable(24) %0, i64 noundef %1) #0 comdat align 2 {
  %3 = alloca ptr, align 8
  %4 = alloca i64, align 8
  store ptr %0, ptr %3, align 8, !tbaa !45
  store i64 %1, ptr %4, align 8, !tbaa !61
  %5 = load ptr, ptr %3, align 8
  %6 = load i64, ptr %4, align 8, !tbaa !61
  %7 = call noundef i64 @_ZNKSt6vectorIiSaIiEE4sizeEv(ptr noundef nonnull align 8 dereferenceable(24) %5) #14
  %8 = icmp uge i64 %6, %7
  br i1 %8, label %9, label %12

9:                                                ; preds = %2
  %10 = load i64, ptr %4, align 8, !tbaa !61
  %11 = call noundef i64 @_ZNKSt6vectorIiSaIiEE4sizeEv(ptr noundef nonnull align 8 dereferenceable(24) %5) #14
  call void (ptr, ...) @_ZSt24__throw_out_of_range_fmtPKcz(ptr noundef @.str.83, i64 noundef %10, i64 noundef %11) #16
  unreachable

12:                                               ; preds = %2
  ret void
}

; Function Attrs: mustprogress nounwind uwtable
define linkonce_odr noundef i64 @_ZNKSt6vectorIiSaIiEE4sizeEv(ptr noundef nonnull align 8 dereferenceable(24) %0) #3 comdat align 2 {
  %2 = alloca ptr, align 8
  store ptr %0, ptr %2, align 8, !tbaa !45
  %3 = load ptr, ptr %2, align 8
  %4 = getelementptr inbounds nuw %"struct.std::_Vector_base", ptr %3, i32 0, i32 0
  %5 = getelementptr inbounds nuw %"struct.std::_Vector_base<int, std::allocator<int>>::_Vector_impl_data", ptr %4, i32 0, i32 1
  %6 = load ptr, ptr %5, align 8, !tbaa !54
  %7 = getelementptr inbounds nuw %"struct.std::_Vector_base", ptr %3, i32 0, i32 0
  %8 = getelementptr inbounds nuw %"struct.std::_Vector_base<int, std::allocator<int>>::_Vector_impl_data", ptr %7, i32 0, i32 0
  %9 = load ptr, ptr %8, align 8, !tbaa !53
  %10 = ptrtoint ptr %6 to i64
  %11 = ptrtoint ptr %9 to i64
  %12 = sub i64 %10, %11
  %13 = sdiv exact i64 %12, 4
  ret i64 %13
}

; Function Attrs: mustprogress nounwind uwtable
define linkonce_odr noundef nonnull align 8 dereferenceable(24) ptr @_ZNSt14__array_traitsI15InteractionListLm95EE6_S_refERA95_KS0_m(ptr noundef nonnull align 8 dereferenceable(2280) %0, i64 noundef %1) #3 comdat align 2 {
  %3 = alloca ptr, align 8
  %4 = alloca i64, align 8
  store ptr %0, ptr %3, align 8, !tbaa !43
  store i64 %1, ptr %4, align 8, !tbaa !61
  %5 = load ptr, ptr %3, align 8, !tbaa !43
  %6 = load i64, ptr %4, align 8, !tbaa !61
  %7 = getelementptr inbounds nuw [95 x %struct.InteractionList], ptr %5, i64 0, i64 %6
  ret ptr %7
}

; Function Attrs: mustprogress uwtable
define linkonce_odr noundef nonnull align 4 dereferenceable(4) ptr @_ZNKSt6vectorIiSaIiEE2atEm(ptr noundef nonnull align 8 dereferenceable(24) %0, i64 noundef %1) #0 comdat align 2 {
  %3 = alloca ptr, align 8
  %4 = alloca i64, align 8
  store ptr %0, ptr %3, align 8, !tbaa !45
  store i64 %1, ptr %4, align 8, !tbaa !61
  %5 = load ptr, ptr %3, align 8
  %6 = load i64, ptr %4, align 8, !tbaa !61
  call void @_ZNKSt6vectorIiSaIiEE14_M_range_checkEm(ptr noundef nonnull align 8 dereferenceable(24) %5, i64 noundef %6)
  %7 = load i64, ptr %4, align 8, !tbaa !61
  %8 = call noundef nonnull align 4 dereferenceable(4) ptr @_ZNKSt6vectorIiSaIiEEixEm(ptr noundef nonnull align 8 dereferenceable(24) %5, i64 noundef %7) #14
  ret ptr %8
}

; Function Attrs: inlinehint mustprogress nounwind uwtable
define linkonce_odr noundef nonnull align 4 dereferenceable(4) ptr @_ZSt3minIiERKT_S2_S2_(ptr noundef nonnull align 4 dereferenceable(4) %0, ptr noundef nonnull align 4 dereferenceable(4) %1) #4 comdat {
  %3 = alloca ptr, align 8
  %4 = alloca ptr, align 8
  %5 = alloca ptr, align 8
  store ptr %0, ptr %4, align 8, !tbaa !60
  store ptr %1, ptr %5, align 8, !tbaa !60
  %6 = load ptr, ptr %5, align 8, !tbaa !60
  %7 = load i32, ptr %6, align 4, !tbaa !38
  %8 = load ptr, ptr %4, align 8, !tbaa !60
  %9 = load i32, ptr %8, align 4, !tbaa !38
  %10 = icmp slt i32 %7, %9
  br i1 %10, label %11, label %13

11:                                               ; preds = %2
  %12 = load ptr, ptr %5, align 8, !tbaa !60
  store ptr %12, ptr %3, align 8
  br label %15

13:                                               ; preds = %2
  %14 = load ptr, ptr %4, align 8, !tbaa !60
  store ptr %14, ptr %3, align 8
  br label %15

15:                                               ; preds = %13, %11
  %16 = load ptr, ptr %3, align 8
  ret ptr %16
}

; Function Attrs: mustprogress nounwind uwtable
define linkonce_odr noundef i32 @_ZNK15InteractionList4sizeEv(ptr noundef nonnull align 8 dereferenceable(24) %0) #3 comdat align 2 {
  %2 = alloca ptr, align 8
  store ptr %0, ptr %2, align 8, !tbaa !43
  %3 = load ptr, ptr %2, align 8
  %4 = getelementptr inbounds nuw %struct.InteractionList, ptr %3, i32 0, i32 0
  %5 = call noundef i64 @_ZNKSt6vectorIiSaIiEE4sizeEv(ptr noundef nonnull align 8 dereferenceable(24) %4) #14
  %6 = trunc i64 %5 to i32
  ret i32 %6
}

; Function Attrs: mustprogress uwtable
define linkonce_odr noundef nonnull align 8 dereferenceable(24) ptr @_ZNKSt5arrayI15InteractionListLm95EE2atEm(ptr noundef nonnull align 8 dereferenceable(2280) %0, i64 noundef %1) #0 comdat align 2 {
  %3 = alloca ptr, align 8
  %4 = alloca i64, align 8
  store ptr %0, ptr %3, align 8, !tbaa !34
  store i64 %1, ptr %4, align 8, !tbaa !61
  %5 = load ptr, ptr %3, align 8
  %6 = load i64, ptr %4, align 8, !tbaa !61
  %7 = icmp ult i64 %6, 95
  br i1 %7, label %8, label %12

8:                                                ; preds = %2
  %9 = getelementptr inbounds nuw %"struct.std::array", ptr %5, i32 0, i32 0
  %10 = load i64, ptr %4, align 8, !tbaa !61
  %11 = call noundef nonnull align 8 dereferenceable(24) ptr @_ZNSt14__array_traitsI15InteractionListLm95EE6_S_refERA95_KS0_m(ptr noundef nonnull align 8 dereferenceable(2280) %9, i64 noundef %10) #14
  br label %17

12:                                               ; preds = %2
  %13 = load i64, ptr %4, align 8, !tbaa !61
  call void (ptr, ...) @_ZSt24__throw_out_of_range_fmtPKcz(ptr noundef @.str.82, i64 noundef %13, i64 noundef 95) #16
  unreachable

14:                                               ; No predecessors!
  %15 = getelementptr inbounds nuw %"struct.std::array", ptr %5, i32 0, i32 0
  %16 = call noundef nonnull align 8 dereferenceable(24) ptr @_ZNSt14__array_traitsI15InteractionListLm95EE6_S_refERA95_KS0_m(ptr noundef nonnull align 8 dereferenceable(2280) %15, i64 noundef 0) #14
  br label %17

17:                                               ; preds = %14, %8
  %18 = phi ptr [ %11, %8 ], [ %16, %14 ]
  ret ptr %18
}

; Function Attrs: mustprogress uwtable
define internal void @_ZL23compareInteractionListsP8_IO_FILEPKSt5arrayI15InteractionListLm95EES5_(ptr noundef %0, ptr noundef %1, ptr noundef %2) #0 {
  %4 = alloca ptr, align 8
  %5 = alloca ptr, align 8
  %6 = alloca ptr, align 8
  %7 = alloca i32, align 4
  %8 = alloca i32, align 4
  %9 = alloca i32, align 4
  %10 = alloca i32, align 4
  %11 = alloca i32, align 4
  %12 = alloca i32, align 4
  store ptr %0, ptr %4, align 8, !tbaa !355
  store ptr %1, ptr %5, align 8, !tbaa !34
  store ptr %2, ptr %6, align 8, !tbaa !34
  %13 = load ptr, ptr %4, align 8, !tbaa !355
  %14 = call i32 (ptr, ptr, ...) @fprintf(ptr noundef %13, ptr noundef @.str.78) #14
  %15 = load ptr, ptr %5, align 8, !tbaa !34
  %16 = icmp ne ptr %15, null
  br i1 %16, label %20, label %17

17:                                               ; preds = %3
  %18 = load ptr, ptr %6, align 8, !tbaa !34
  %19 = icmp ne ptr %18, null
  br i1 %19, label %20, label %32

20:                                               ; preds = %17, %3
  %21 = load ptr, ptr %5, align 8, !tbaa !34
  %22 = icmp ne ptr %21, null
  br i1 %22, label %23, label %26

23:                                               ; preds = %20
  %24 = load ptr, ptr %6, align 8, !tbaa !34
  %25 = icmp ne ptr %24, null
  br i1 %25, label %32, label %26

26:                                               ; preds = %23, %20
  %27 = load ptr, ptr %4, align 8, !tbaa !355
  %28 = load ptr, ptr %5, align 8, !tbaa !34
  %29 = icmp ne ptr %28, null
  %30 = select i1 %29, i32 1, i32 2
  %31 = call i32 (ptr, ptr, ...) @fprintf(ptr noundef %27, ptr noundef @.str.79, i32 noundef %30) #14
  br label %32

32:                                               ; preds = %26, %23, %17
  %33 = load ptr, ptr %5, align 8, !tbaa !34
  %34 = icmp ne ptr %33, null
  br i1 %34, label %35, label %102

35:                                               ; preds = %32
  %36 = load ptr, ptr %6, align 8, !tbaa !34
  %37 = icmp ne ptr %36, null
  br i1 %37, label %38, label %102

38:                                               ; preds = %35
  call void @llvm.lifetime.start.p0(i64 4, ptr %7) #14
  store i32 0, ptr %7, align 4, !tbaa !38
  br label %39

39:                                               ; preds = %98, %38
  %40 = load i32, ptr %7, align 4, !tbaa !38
  %41 = icmp slt i32 %40, 95
  br i1 %41, label %43, label %42

42:                                               ; preds = %39
  store i32 2, ptr %8, align 4
  call void @llvm.lifetime.end.p0(i64 4, ptr %7) #14
  br label %101

43:                                               ; preds = %39
  %44 = load ptr, ptr %4, align 8, !tbaa !355
  %45 = load i32, ptr %7, align 4, !tbaa !38
  %46 = load ptr, ptr %5, align 8, !tbaa !34
  %47 = load i32, ptr %7, align 4, !tbaa !38
  %48 = sext i32 %47 to i64
  %49 = call noundef nonnull align 8 dereferenceable(24) ptr @_ZNKSt5arrayI15InteractionListLm95EE2atEm(ptr noundef nonnull align 8 dereferenceable(2280) %46, i64 noundef %48)
  %50 = call noundef i32 @_ZNK15InteractionList4sizeEv(ptr noundef nonnull align 8 dereferenceable(24) %49)
  %51 = load ptr, ptr %6, align 8, !tbaa !34
  %52 = load i32, ptr %7, align 4, !tbaa !38
  %53 = sext i32 %52 to i64
  %54 = call noundef nonnull align 8 dereferenceable(24) ptr @_ZNKSt5arrayI15InteractionListLm95EE2atEm(ptr noundef nonnull align 8 dereferenceable(2280) %51, i64 noundef %53)
  %55 = call noundef i32 @_ZNK15InteractionList4sizeEv(ptr noundef nonnull align 8 dereferenceable(24) %54)
  call void @_Z7cmp_intP8_IO_FILEPKciii(ptr noundef %44, ptr noundef @.str.80, i32 noundef %45, i32 noundef %50, i32 noundef %55)
  call void @llvm.lifetime.start.p0(i64 4, ptr %9) #14
  call void @llvm.lifetime.start.p0(i64 4, ptr %10) #14
  %56 = load ptr, ptr %5, align 8, !tbaa !34
  %57 = load i32, ptr %7, align 4, !tbaa !38
  %58 = sext i32 %57 to i64
  %59 = call noundef nonnull align 8 dereferenceable(24) ptr @_ZNKSt5arrayI15InteractionListLm95EE2atEm(ptr noundef nonnull align 8 dereferenceable(2280) %56, i64 noundef %58)
  %60 = call noundef i32 @_ZNK15InteractionList4sizeEv(ptr noundef nonnull align 8 dereferenceable(24) %59)
  store i32 %60, ptr %10, align 4, !tbaa !38
  call void @llvm.lifetime.start.p0(i64 4, ptr %11) #14
  %61 = load ptr, ptr %6, align 8, !tbaa !34
  %62 = load i32, ptr %7, align 4, !tbaa !38
  %63 = sext i32 %62 to i64
  %64 = call noundef nonnull align 8 dereferenceable(24) ptr @_ZNKSt5arrayI15InteractionListLm95EE2atEm(ptr noundef nonnull align 8 dereferenceable(2280) %61, i64 noundef %63)
  %65 = call noundef i32 @_ZNK15InteractionList4sizeEv(ptr noundef nonnull align 8 dereferenceable(24) %64)
  store i32 %65, ptr %11, align 4, !tbaa !38
  %66 = call noundef nonnull align 4 dereferenceable(4) ptr @_ZSt3minIiERKT_S2_S2_(ptr noundef nonnull align 4 dereferenceable(4) %10, ptr noundef nonnull align 4 dereferenceable(4) %11)
  %67 = load i32, ptr %66, align 4, !tbaa !38
  call void @llvm.lifetime.end.p0(i64 4, ptr %11) #14
  call void @llvm.lifetime.end.p0(i64 4, ptr %10) #14
  store i32 %67, ptr %9, align 4, !tbaa !38
  call void @llvm.lifetime.start.p0(i64 4, ptr %12) #14
  store i32 0, ptr %12, align 4, !tbaa !38
  br label %68

68:                                               ; preds = %94, %43
  %69 = load i32, ptr %12, align 4, !tbaa !38
  %70 = load i32, ptr %9, align 4, !tbaa !38
  %71 = icmp slt i32 %69, %70
  br i1 %71, label %73, label %72

72:                                               ; preds = %68
  store i32 5, ptr %8, align 4
  call void @llvm.lifetime.end.p0(i64 4, ptr %12) #14
  br label %97

73:                                               ; preds = %68
  %74 = load ptr, ptr %4, align 8, !tbaa !355
  %75 = load i32, ptr %12, align 4, !tbaa !38
  %76 = load ptr, ptr %5, align 8, !tbaa !34
  %77 = load i32, ptr %7, align 4, !tbaa !38
  %78 = sext i32 %77 to i64
  %79 = call noundef nonnull align 8 dereferenceable(24) ptr @_ZNKSt5arrayI15InteractionListLm95EE2atEm(ptr noundef nonnull align 8 dereferenceable(2280) %76, i64 noundef %78)
  %80 = getelementptr inbounds nuw %struct.InteractionList, ptr %79, i32 0, i32 0
  %81 = load i32, ptr %12, align 4, !tbaa !38
  %82 = sext i32 %81 to i64
  %83 = call noundef nonnull align 4 dereferenceable(4) ptr @_ZNKSt6vectorIiSaIiEE2atEm(ptr noundef nonnull align 8 dereferenceable(24) %80, i64 noundef %82)
  %84 = load i32, ptr %83, align 4, !tbaa !38
  %85 = load ptr, ptr %6, align 8, !tbaa !34
  %86 = load i32, ptr %7, align 4, !tbaa !38
  %87 = sext i32 %86 to i64
  %88 = call noundef nonnull align 8 dereferenceable(24) ptr @_ZNKSt5arrayI15InteractionListLm95EE2atEm(ptr noundef nonnull align 8 dereferenceable(2280) %85, i64 noundef %87)
  %89 = getelementptr inbounds nuw %struct.InteractionList, ptr %88, i32 0, i32 0
  %90 = load i32, ptr %12, align 4, !tbaa !38
  %91 = sext i32 %90 to i64
  %92 = call noundef nonnull align 4 dereferenceable(4) ptr @_ZNKSt6vectorIiSaIiEE2atEm(ptr noundef nonnull align 8 dereferenceable(24) %89, i64 noundef %91)
  %93 = load i32, ptr %92, align 4, !tbaa !38
  call void @_Z7cmp_intP8_IO_FILEPKciii(ptr noundef %74, ptr noundef @.str.81, i32 noundef %75, i32 noundef %84, i32 noundef %93)
  br label %94

94:                                               ; preds = %73
  %95 = load i32, ptr %12, align 4, !tbaa !38
  %96 = add nsw i32 %95, 1
  store i32 %96, ptr %12, align 4, !tbaa !38
  br label %68, !llvm.loop !407

97:                                               ; preds = %72
  call void @llvm.lifetime.end.p0(i64 4, ptr %9) #14
  br label %98

98:                                               ; preds = %97
  %99 = load i32, ptr %7, align 4, !tbaa !38
  %100 = add nsw i32 %99, 1
  store i32 %100, ptr %7, align 4, !tbaa !38
  br label %39, !llvm.loop !408

101:                                              ; preds = %42
  br label %102

102:                                              ; preds = %101, %35, %32
  ret void
}