; Function Attrs: mustprogress uwtable
define internal fastcc void @_ZL23compareInteractionListsP8_IO_FILEPKSt5arrayI15InteractionListLm95EES5_(ptr noundef %0, ptr noundef readonly %1, ptr noundef readonly %2) unnamed_addr #3 {
  %4 = tail call i64 @fwrite(ptr nonnull @.str.78, i64 27, i64 1, ptr %0)
  %5 = icmp ne ptr %1, null
  %6 = icmp ne ptr %2, null
  %or.cond3 = and i1 %5, %6
  %7 = xor i1 %5, %6
  br i1 %7, label %8, label %11

8:                                                ; preds = %3
  %9 = select i1 %5, i32 1, i32 2
  %10 = tail call i32 (ptr, ptr, ...) @fprintf(ptr noundef %0, ptr noundef nonnull @.str.79, i32 noundef %9) #20
  br label %11

11:                                               ; preds = %3, %8
  br i1 %or.cond3, label %_ZNKSt5arrayI15InteractionListLm95EE2atEm.exit, label %.loopexit

_ZNKSt5arrayI15InteractionListLm95EE2atEm.exit:   ; preds = %11, %._crit_edge
  %indvars.iv64 = phi i64 [ %indvars.iv.next65, %._crit_edge ], [ 0, %11 ]
  %12 = getelementptr inbounds nuw [95 x %struct.InteractionList], ptr %1, i64 0, i64 %indvars.iv64
  %13 = getelementptr inbounds nuw i8, ptr %12, i64 8
  %14 = load ptr, ptr %13, align 8, !tbaa !30
  %15 = load ptr, ptr %12, align 8, !tbaa !28
  %16 = ptrtoint ptr %14 to i64
  %17 = ptrtoint ptr %15 to i64
  %18 = sub i64 %16, %17
  %19 = lshr exact i64 %18, 2
  %20 = trunc i64 %19 to i32
  %21 = getelementptr inbounds nuw [95 x %struct.InteractionList], ptr %2, i64 0, i64 %indvars.iv64
  %22 = getelementptr inbounds nuw i8, ptr %21, i64 8
  %23 = load ptr, ptr %22, align 8, !tbaa !30
  %24 = load ptr, ptr %21, align 8, !tbaa !28
  %25 = ptrtoint ptr %23 to i64
  %26 = ptrtoint ptr %24 to i64
  %27 = sub i64 %25, %26
  %28 = lshr exact i64 %27, 2
  %29 = trunc i64 %28 to i32
  %30 = trunc nuw nsw i64 %indvars.iv64 to i32
  tail call void @_Z7cmp_intP8_IO_FILEPKciii(ptr noundef %0, ptr noundef nonnull @.str.80, i32 noundef %30, i32 noundef %20, i32 noundef %29)
  %31 = load ptr, ptr %13, align 8, !tbaa !30
  %32 = load ptr, ptr %12, align 8, !tbaa !28
  %33 = ptrtoint ptr %31 to i64
  %34 = ptrtoint ptr %32 to i64
  %35 = sub i64 %33, %34
  %36 = lshr exact i64 %35, 2
  %37 = trunc i64 %36 to i32
  %38 = load ptr, ptr %22, align 8, !tbaa !30
  %39 = load ptr, ptr %21, align 8, !tbaa !28
  %40 = ptrtoint ptr %38 to i64
  %41 = ptrtoint ptr %39 to i64
  %42 = sub i64 %40, %41
  %43 = lshr exact i64 %42, 2
  %44 = trunc i64 %43 to i32
  %.sroa.speculated = tail call i32 @llvm.smin.i32(i32 %44, i32 %37)
  %45 = icmp sgt i32 %.sroa.speculated, 0
  br i1 %45, label %_ZNKSt5arrayI15InteractionListLm95EE2atEm.exit43.preheader, label %._crit_edge

_ZNKSt5arrayI15InteractionListLm95EE2atEm.exit43.preheader: ; preds = %_ZNKSt5arrayI15InteractionListLm95EE2atEm.exit
  %wide.trip.count = zext nneg i32 %.sroa.speculated to i64
  br label %_ZNKSt5arrayI15InteractionListLm95EE2atEm.exit43

._crit_edge:                                      ; preds = %_ZNKSt6vectorIiSaIiEE2atEm.exit46, %_ZNKSt5arrayI15InteractionListLm95EE2atEm.exit
  %indvars.iv.next65 = add nuw nsw i64 %indvars.iv64, 1
  %exitcond67.not = icmp eq i64 %indvars.iv.next65, 95
  br i1 %exitcond67.not, label %.loopexit, label %_ZNKSt5arrayI15InteractionListLm95EE2atEm.exit, !llvm.loop !184

_ZNKSt5arrayI15InteractionListLm95EE2atEm.exit43: ; preds = %_ZNKSt5arrayI15InteractionListLm95EE2atEm.exit43.preheader, %_ZNKSt6vectorIiSaIiEE2atEm.exit46
  %indvars.iv = phi i64 [ 0, %_ZNKSt5arrayI15InteractionListLm95EE2atEm.exit43.preheader ], [ %indvars.iv.next, %_ZNKSt6vectorIiSaIiEE2atEm.exit46 ]
  %46 = load ptr, ptr %13, align 8, !tbaa !30
  %47 = load ptr, ptr %12, align 8, !tbaa !28
  %48 = ptrtoint ptr %46 to i64
  %49 = ptrtoint ptr %47 to i64
  %50 = sub i64 %48, %49
  %51 = ashr exact i64 %50, 2
  %.not.i.i = icmp ugt i64 %51, %indvars.iv
  br i1 %.not.i.i, label %_ZNKSt5arrayI15InteractionListLm95EE2atEm.exit44, label %52

52:                                               ; preds = %_ZNKSt5arrayI15InteractionListLm95EE2atEm.exit43
  tail call void (ptr, ...) @_ZSt24__throw_out_of_range_fmtPKcz(ptr noundef nonnull @.str.83, i64 noundef %indvars.iv, i64 noundef %51) #23
  unreachable

_ZNKSt5arrayI15InteractionListLm95EE2atEm.exit44: ; preds = %_ZNKSt5arrayI15InteractionListLm95EE2atEm.exit43
  %53 = load ptr, ptr %22, align 8, !tbaa !30
  %54 = load ptr, ptr %21, align 8, !tbaa !28
  %55 = ptrtoint ptr %53 to i64
  %56 = ptrtoint ptr %54 to i64
  %57 = sub i64 %55, %56
  %58 = ashr exact i64 %57, 2
  %.not.i.i45 = icmp ugt i64 %58, %indvars.iv
  br i1 %.not.i.i45, label %_ZNKSt6vectorIiSaIiEE2atEm.exit46, label %59

59:                                               ; preds = %_ZNKSt5arrayI15InteractionListLm95EE2atEm.exit44
  tail call void (ptr, ...) @_ZSt24__throw_out_of_range_fmtPKcz(ptr noundef nonnull @.str.83, i64 noundef %indvars.iv, i64 noundef %58) #23
  unreachable

_ZNKSt6vectorIiSaIiEE2atEm.exit46:                ; preds = %_ZNKSt5arrayI15InteractionListLm95EE2atEm.exit44
  %60 = getelementptr inbounds nuw i32, ptr %47, i64 %indvars.iv
  %61 = load i32, ptr %60, align 4, !tbaa !139
  %62 = getelementptr inbounds nuw i32, ptr %54, i64 %indvars.iv
  %63 = load i32, ptr %62, align 4, !tbaa !139
  %64 = trunc nuw nsw i64 %indvars.iv to i32
  tail call void @_Z7cmp_intP8_IO_FILEPKciii(ptr noundef %0, ptr noundef nonnull @.str.81, i32 noundef %64, i32 noundef %61, i32 noundef %63)
  %indvars.iv.next = add nuw nsw i64 %indvars.iv, 1
  %exitcond.not = icmp eq i64 %indvars.iv.next, %wide.trip.count
  br i1 %exitcond.not, label %._crit_edge, label %_ZNKSt5arrayI15InteractionListLm95EE2atEm.exit43, !llvm.loop !185

.loopexit:                                        ; preds = %._crit_edge, %11
  ret void
}